; Function Attrs: nounwind uwtable
define dso_local i32 @PyModule_AddObjectRef(ptr noundef %0, ptr noundef %1, ptr noundef %2) local_unnamed_addr #0 {
  %4 = getelementptr i8, ptr %0, i64 8
  %.val = load ptr, ptr %4, align 8, !tbaa !4
  %.not.i = icmp eq ptr %.val, @PyModule_Type
  br i1 %.not.i, label %PyObject_TypeCheck.exit.thread, label %PyObject_TypeCheck.exit

PyObject_TypeCheck.exit:                          ; preds = %3
  %5 = tail call i32 @PyType_IsSubtype(ptr noundef %.val, ptr noundef nonnull @PyModule_Type) #7
  %.not13 = icmp eq i32 %5, 0
  br i1 %.not13, label %6, label %PyObject_TypeCheck.exit.thread

6:                                                ; preds = %PyObject_TypeCheck.exit
  %7 = load ptr, ptr @PyExc_TypeError, align 8, !tbaa !23
  tail call void @PyErr_SetString(ptr noundef %7, ptr noundef nonnull @.str.1) #7
  br label %21

PyObject_TypeCheck.exit.thread:                   ; preds = %3, %PyObject_TypeCheck.exit
  %.not10 = icmp eq ptr %2, null
  br i1 %.not10, label %8, label %12

8:                                                ; preds = %PyObject_TypeCheck.exit.thread
  %9 = tail call ptr @PyErr_Occurred() #7
  %.not11 = icmp eq ptr %9, null
  br i1 %.not11, label %10, label %21

10:                                               ; preds = %8
  %11 = load ptr, ptr @PyExc_SystemError, align 8, !tbaa !23
  tail call void @PyErr_SetString(ptr noundef %11, ptr noundef nonnull @.str.2) #7
  br label %21

12:                                               ; preds = %PyObject_TypeCheck.exit.thread
  %13 = tail call ptr @PyModule_GetDict(ptr noundef nonnull %0) #7
  %14 = icmp eq ptr %13, null
  br i1 %14, label %15, label %19

15:                                               ; preds = %12
  %16 = load ptr, ptr @PyExc_SystemError, align 8, !tbaa !23
  %17 = tail call ptr @PyModule_GetName(ptr noundef nonnull %0) #7
  %18 = tail call ptr (ptr, ptr, ...) @PyErr_Format(ptr noundef %16, ptr noundef nonnull @.str.3, ptr noundef %17) #7
  br label %21

19:                                               ; preds = %12
  %20 = tail call i32 @PyDict_SetItemString(ptr noundef nonnull %13, ptr noundef %1, ptr noundef nonnull %2) #7
  br label %21

21:                                               ; preds = %15, %19, %8, %10, %6
  %.0 = phi i32 [ -1, %6 ], [ -1, %10 ], [ -1, %8 ], [ -1, %15 ], [ %20, %19 ]
  ret i32 %.0
}